; Function Attrs: nounwind uwtable
define dso_local noundef i64 @makeMdArrayResult(ptr noundef readonly captures(none) %0, i32 noundef %1, ptr noundef %2, ptr noundef %3, ptr noundef %4, i1 noundef zeroext %5) local_unnamed_addr #0 {
  %7 = load ptr, ptr @CurrentMemoryContext, align 8
  store ptr %4, ptr @CurrentMemoryContext, align 8
  %8 = getelementptr inbounds nuw i8, ptr %0, i64 8
  %9 = load ptr, ptr %8, align 8
  %10 = getelementptr inbounds nuw i8, ptr %0, i64 16
  %11 = load ptr, ptr %10, align 8
  %12 = getelementptr inbounds nuw i8, ptr %0, i64 32
  %13 = load i32, ptr %12, align 8
  %14 = getelementptr inbounds nuw i8, ptr %0, i64 36
  %15 = load i16, ptr %14, align 4
  %16 = sext i16 %15 to i32
  %17 = getelementptr inbounds nuw i8, ptr %0, i64 38
  %18 = load i8, ptr %17, align 2, !range !4, !noundef !5
  %19 = trunc nuw i8 %18 to i1
  %20 = getelementptr inbounds nuw i8, ptr %0, i64 39
  %21 = load i8, ptr %20, align 1
  %22 = tail call ptr @construct_md_array(ptr noundef %9, ptr noundef %11, i32 noundef %1, ptr noundef %2, ptr noundef %3, i32 noundef %13, i32 noundef %16, i1 noundef zeroext %19, i8 noundef signext %21)
  store ptr %7, ptr @CurrentMemoryContext, align 8
  br i1 %5, label %23, label %25

23:                                               ; preds = %6
  %24 = load ptr, ptr %0, align 8
  tail call void @MemoryContextDelete(ptr noundef %24) #18
  br label %25

25:                                               ; preds = %23, %6
  %26 = ptrtoint ptr %22 to i64
  ret i64 %26
}